target datalayout = "e-m:e-p270:32:32-p271:32:32-p272:64:64-i64:64-i128:128-f80:128-n8:16:32:64-S128"
target triple = "x86_64-pc-linux-gnu"

%"struct.cv::tinyxml2::Entity" = type { ptr, i32, i8 }
%"class.cv::tinyxml2::XMLPrinter" = type { %"class.cv::tinyxml2::XMLVisitor", i8, %"class.cv::tinyxml2::DynArray.6", i8, ptr, i32, i32, i8, i8, [64 x i8], [64 x i8], [6 x i8], %"class.cv::tinyxml2::DynArray.7" }
%"class.cv::tinyxml2::XMLVisitor" = type { ptr }
%"class.cv::tinyxml2::DynArray.6" = type { ptr, [10 x ptr], i32, i32 }
%"class.cv::tinyxml2::DynArray.7" = type <{ ptr, [20 x i8], i32, i32, [4 x i8] }>

@.str = private unnamed_addr constant [3 x i8] c"%d\00", align 1
@.str.20 = private unnamed_addr constant [3 x i8] c"%s\00", align 1
@.str.23 = private unnamed_addr constant [3 x i8] c"%c\00", align 1
@.str.24 = private unnamed_addr constant [5 x i8] c"&%s;\00", align 1
@.str.28 = private unnamed_addr constant [6 x i8] c" %s=\22\00", align 1
@.str.29 = private unnamed_addr constant [2 x i8] c"\22\00", align 1

; Function Attrs: mustprogress uwtable
define hidden void @_ZN2cv8tinyxml210XMLPrinter11PrintStringEPKcb(ptr noundef nonnull align 8 dereferenceable(312) %0, ptr noundef %1, i1 noundef zeroext %2) #3 align 2 {
  %4 = alloca ptr, align 8
  %5 = alloca ptr, align 8
  %6 = alloca i8, align 1
  %7 = alloca ptr, align 8
  %8 = alloca ptr, align 8
  %9 = alloca i32, align 4
  %10 = alloca i32, align 4
  store ptr %0, ptr %4, align 8, !tbaa !185
  store ptr %1, ptr %5, align 8, !tbaa !14
  %11 = zext i1 %2 to i8
  store i8 %11, ptr %6, align 1, !tbaa !37
  %12 = load ptr, ptr %4, align 8
  call void @llvm.lifetime.start.p0(i64 8, ptr %7) #17
  %13 = load ptr, ptr %5, align 8, !tbaa !14
  store ptr %13, ptr %7, align 8, !tbaa !14
  call void @llvm.lifetime.start.p0(i64 8, ptr %8) #17
  %14 = load i8, ptr %6, align 1, !tbaa !37, !range !39, !noundef !40
  %15 = trunc i8 %14 to i1
  br i1 %15, label %16, label %18

16:                                               ; preds = %3
  %17 = getelementptr inbounds nuw %"class.cv::tinyxml2::XMLPrinter", ptr %12, i32 0, i32 10
  br label %20

18:                                               ; preds = %3
  %19 = getelementptr inbounds nuw %"class.cv::tinyxml2::XMLPrinter", ptr %12, i32 0, i32 9
  br label %20

20:                                               ; preds = %18, %16
  %21 = phi ptr [ %17, %16 ], [ %19, %18 ]
  %22 = getelementptr inbounds [64 x i8], ptr %21, i64 0, i64 0
  store ptr %22, ptr %8, align 8, !tbaa !35
  %23 = getelementptr inbounds nuw %"class.cv::tinyxml2::XMLPrinter", ptr %12, i32 0, i32 7
  %24 = load i8, ptr %23, align 8, !tbaa !197, !range !39, !noundef !40
  %25 = trunc i8 %24 to i1
  br i1 %25, label %26, label %96

26:                                               ; preds = %20
  br label %27

27:                                               ; preds = %92, %26
  %28 = load ptr, ptr %7, align 8, !tbaa !14
  %29 = load i8, ptr %28, align 1, !tbaa !18
  %30 = icmp ne i8 %29, 0
  br i1 %30, label %31, label %95

31:                                               ; preds = %27
  %32 = load ptr, ptr %7, align 8, !tbaa !14
  %33 = load i8, ptr %32, align 1, !tbaa !18
  %34 = sext i8 %33 to i32
  %35 = icmp sgt i32 %34, 0
  br i1 %35, label %36, label %92

36:                                               ; preds = %31
  %37 = load ptr, ptr %7, align 8, !tbaa !14
  %38 = load i8, ptr %37, align 1, !tbaa !18
  %39 = sext i8 %38 to i32
  %40 = icmp slt i32 %39, 64
  br i1 %40, label %41, label %92

41:                                               ; preds = %36
  %42 = load ptr, ptr %8, align 8, !tbaa !35
  %43 = load ptr, ptr %7, align 8, !tbaa !14
  %44 = load i8, ptr %43, align 1, !tbaa !18
  %45 = sext i8 %44 to i32
  %46 = zext i32 %45 to i64
  %47 = getelementptr inbounds nuw i8, ptr %42, i64 %46
  %48 = load i8, ptr %47, align 1, !tbaa !37, !range !39, !noundef !40
  %49 = trunc i8 %48 to i1
  br i1 %49, label %50, label %91

50:                                               ; preds = %41
  br label %51

51:                                               ; preds = %55, %50
  %52 = load ptr, ptr %5, align 8, !tbaa !14
  %53 = load ptr, ptr %7, align 8, !tbaa !14
  %54 = icmp ult ptr %52, %53
  br i1 %54, label %55, label %61

55:                                               ; preds = %51
  %56 = load ptr, ptr %5, align 8, !tbaa !14
  %57 = load i8, ptr %56, align 1, !tbaa !18
  %58 = sext i8 %57 to i32
  call void (ptr, ptr, ...) @_ZN2cv8tinyxml210XMLPrinter5PrintEPKcz(ptr noundef nonnull align 8 dereferenceable(312) %12, ptr noundef @.str.23, i32 noundef %58)
  %59 = load ptr, ptr %5, align 8, !tbaa !14
  %60 = getelementptr inbounds nuw i8, ptr %59, i32 1
  store ptr %60, ptr %5, align 8, !tbaa !14
  br label %51, !llvm.loop !212

61:                                               ; preds = %51
  call void @llvm.lifetime.start.p0(i64 4, ptr %9) #17
  store i32 0, ptr %9, align 4, !tbaa !15
  br label %62

62:                                               ; preds = %84, %61
  %63 = load i32, ptr %9, align 4, !tbaa !15
  %64 = icmp slt i32 %63, 5
  br i1 %64, label %66, label %65

65:                                               ; preds = %62
  store i32 6, ptr %10, align 4
  br label %87

66:                                               ; preds = %62
  %67 = load i32, ptr %9, align 4, !tbaa !15
  %68 = sext i32 %67 to i64
  %69 = getelementptr inbounds [5 x %"struct.cv::tinyxml2::Entity"], ptr @_ZN2cv8tinyxml2L8entitiesE, i64 0, i64 %68
  %70 = getelementptr inbounds nuw %"struct.cv::tinyxml2::Entity", ptr %69, i32 0, i32 2
  %71 = load i8, ptr %70, align 4, !tbaa !28
  %72 = sext i8 %71 to i32
  %73 = load ptr, ptr %7, align 8, !tbaa !14
  %74 = load i8, ptr %73, align 1, !tbaa !18
  %75 = sext i8 %74 to i32
  %76 = icmp eq i32 %72, %75
  br i1 %76, label %77, label %83

77:                                               ; preds = %66
  %78 = load i32, ptr %9, align 4, !tbaa !15
  %79 = sext i32 %78 to i64
  %80 = getelementptr inbounds [5 x %"struct.cv::tinyxml2::Entity"], ptr @_ZN2cv8tinyxml2L8entitiesE, i64 0, i64 %79
  %81 = getelementptr inbounds nuw %"struct.cv::tinyxml2::Entity", ptr %80, i32 0, i32 0
  %82 = load ptr, ptr %81, align 16, !tbaa !25
  call void (ptr, ptr, ...) @_ZN2cv8tinyxml210XMLPrinter5PrintEPKcz(ptr noundef nonnull align 8 dereferenceable(312) %12, ptr noundef @.str.24, ptr noundef %82)
  store i32 6, ptr %10, align 4
  br label %87

83:                                               ; preds = %66
  br label %84

84:                                               ; preds = %83
  %85 = load i32, ptr %9, align 4, !tbaa !15
  %86 = add nsw i32 %85, 1
  store i32 %86, ptr %9, align 4, !tbaa !15
  br label %62, !llvm.loop !213

87:                                               ; preds = %77, %65
  call void @llvm.lifetime.end.p0(i64 4, ptr %9) #17
  br label %88

88:                                               ; preds = %87
  %89 = load ptr, ptr %5, align 8, !tbaa !14
  %90 = getelementptr inbounds nuw i8, ptr %89, i32 1
  store ptr %90, ptr %5, align 8, !tbaa !14
  br label %91

91:                                               ; preds = %88, %41
  br label %92

92:                                               ; preds = %91, %36, %31
  %93 = load ptr, ptr %7, align 8, !tbaa !14
  %94 = getelementptr inbounds nuw i8, ptr %93, i32 1
  store ptr %94, ptr %7, align 8, !tbaa !14
  br label %27, !llvm.loop !214

95:                                               ; preds = %27
  br label %96

96:                                               ; preds = %95, %20
  %97 = getelementptr inbounds nuw %"class.cv::tinyxml2::XMLPrinter", ptr %12, i32 0, i32 7
  %98 = load i8, ptr %97, align 8, !tbaa !197, !range !39, !noundef !40
  %99 = trunc i8 %98 to i1
  br i1 %99, label %100, label %107

100:                                              ; preds = %96
  %101 = load ptr, ptr %7, align 8, !tbaa !14
  %102 = load ptr, ptr %5, align 8, !tbaa !14
  %103 = ptrtoint ptr %101 to i64
  %104 = ptrtoint ptr %102 to i64
  %105 = sub i64 %103, %104
  %106 = icmp sgt i64 %105, 0
  br i1 %106, label %107, label %109

107:                                              ; preds = %100, %96
  %108 = load ptr, ptr %5, align 8, !tbaa !14
  call void (ptr, ptr, ...) @_ZN2cv8tinyxml210XMLPrinter5PrintEPKcz(ptr noundef nonnull align 8 dereferenceable(312) %12, ptr noundef @.str.20, ptr noundef %108)
  br label %109

109:                                              ; preds = %107, %100
  call void @llvm.lifetime.end.p0(i64 8, ptr %8) #17
  call void @llvm.lifetime.end.p0(i64 8, ptr %7) #17
  ret void
}

; Function Attrs: mustprogress uwtable
define hidden void @_ZN2cv8tinyxml210XMLPrinter13PushAttributeEPKcS3_(ptr noundef nonnull align 8 dereferenceable(312) %0, ptr noundef %1, ptr noundef %2) #3 align 2 {
  %4 = alloca ptr, align 8
  %5 = alloca ptr, align 8
  %6 = alloca ptr, align 8
  store ptr %0, ptr %4, align 8, !tbaa !185
  store ptr %1, ptr %5, align 8, !tbaa !14
  store ptr %2, ptr %6, align 8, !tbaa !14
  %7 = load ptr, ptr %4, align 8
  %8 = load ptr, ptr %5, align 8, !tbaa !14
  call void (ptr, ptr, ...) @_ZN2cv8tinyxml210XMLPrinter5PrintEPKcz(ptr noundef nonnull align 8 dereferenceable(312) %7, ptr noundef @.str.28, ptr noundef %8)
  %9 = load ptr, ptr %6, align 8, !tbaa !14
  call void @_ZN2cv8tinyxml210XMLPrinter11PrintStringEPKcb(ptr noundef nonnull align 8 dereferenceable(312) %7, ptr noundef %9, i1 noundef zeroext false)
  call void (ptr, ptr, ...) @_ZN2cv8tinyxml210XMLPrinter5PrintEPKcz(ptr noundef nonnull align 8 dereferenceable(312) %7, ptr noundef @.str.29)
  ret void
}

; Function Attrs: mustprogress nounwind uwtable
define hidden void @_ZN2cv8tinyxml27XMLUtil5ToStrEbPci(i1 noundef zeroext %0, ptr noundef %1, i32 noundef %2) #0 align 2 {
  %4 = alloca i8, align 1
  %5 = alloca ptr, align 8
  %6 = alloca i32, align 4
  %7 = zext i1 %0 to i8
  store i8 %7, ptr %4, align 1, !tbaa !37
  store ptr %1, ptr %5, align 8, !tbaa !14
  store i32 %2, ptr %6, align 4, !tbaa !15
  %8 = load ptr, ptr %5, align 8, !tbaa !14
  %9 = load i32, ptr %6, align 4, !tbaa !15
  %10 = sext i32 %9 to i64
  %11 = load i8, ptr %4, align 1, !tbaa !37, !range !39, !noundef !40
  %12 = trunc i8 %11 to i1
  %13 = select i1 %12, i32 1, i32 0
  %14 = call i32 (ptr, i64, ptr, ...) @snprintf(ptr noundef %8, i64 noundef %10, ptr noundef @.str, i32 noundef %13) #17
  ret void
}

; Function Attrs: mustprogress uwtable
define hidden void @_ZN2cv8tinyxml210XMLPrinter13PushAttributeEPKcb(ptr noundef nonnull align 8 dereferenceable(312) %0, ptr noundef %1, i1 noundef zeroext %2) #3 align 2 {
  %4 = alloca ptr, align 8
  %5 = alloca ptr, align 8
  %6 = alloca i8, align 1
  %7 = alloca [200 x i8], align 16
  store ptr %0, ptr %4, align 8, !tbaa !185
  store ptr %1, ptr %5, align 8, !tbaa !14
  %8 = zext i1 %2 to i8
  store i8 %8, ptr %6, align 1, !tbaa !37
  %9 = load ptr, ptr %4, align 8
  call void @llvm.lifetime.start.p0(i64 200, ptr %7) #17
  %10 = load i8, ptr %6, align 1, !tbaa !37, !range !39, !noundef !40
  %11 = trunc i8 %10 to i1
  %12 = getelementptr inbounds [200 x i8], ptr %7, i64 0, i64 0
  call void @_ZN2cv8tinyxml27XMLUtil5ToStrEbPci(i1 noundef zeroext %11, ptr noundef %12, i32 noundef 200)
  %13 = load ptr, ptr %5, align 8, !tbaa !14
  %14 = getelementptr inbounds [200 x i8], ptr %7, i64 0, i64 0
  call void @_ZN2cv8tinyxml210XMLPrinter13PushAttributeEPKcS3_(ptr noundef nonnull align 8 dereferenceable(312) %9, ptr noundef %13, ptr noundef %14)
  call void @llvm.lifetime.end.p0(i64 200, ptr %7) #17
  ret void
}