; Function Attrs: mustprogress uwtable
define hidden void @_ZN2cv8tinyxml210XMLPrinter13PushAttributeEPKcb(ptr noundef nonnull align 8 dereferenceable(312) %0, ptr noundef %1, i1 noundef zeroext %2) local_unnamed_addr #4 align 2 {
  %4 = alloca [200 x i8], align 16
  call void @llvm.lifetime.start.p0(i64 200, ptr nonnull %4) #24
  %5 = zext i1 %2 to i32
  %6 = call i32 (ptr, i64, ptr, ...) @snprintf(ptr noundef nonnull dereferenceable(1) %4, i64 noundef 200, ptr noundef nonnull @.str, i32 noundef %5) #24
  tail call void (ptr, ptr, ...) @_ZN2cv8tinyxml210XMLPrinter5PrintEPKcz(ptr noundef nonnull align 8 dereferenceable(312) %0, ptr noundef nonnull @.str.28, ptr noundef %1)
  %7 = getelementptr inbounds nuw i8, ptr %0, i64 138
  %8 = getelementptr inbounds nuw i8, ptr %0, i64 136
  %9 = load i8, ptr %8, align 8, !tbaa !167, !range !119, !noundef !120
  %10 = trunc nuw i8 %9 to i1
  br i1 %10, label %.preheader33.i, label %.loopexit34.thread.i

.preheader33.i:                                   ; preds = %3
  %11 = load i8, ptr %4, align 16, !tbaa !12
  %.not37.i = icmp eq i8 %11, 0
  br i1 %.not37.i, label %.loopexit34.i, label %.lr.ph40.i

.lr.ph40.i:                                       ; preds = %.preheader33.i, %33
  %12 = phi i8 [ %35, %33 ], [ %11, %.preheader33.i ]
  %.139.i = phi ptr [ %.2.i, %33 ], [ %4, %.preheader33.i ]
  %.12338.i = phi ptr [ %34, %33 ], [ %4, %.preheader33.i ]
  %or.cond.i = icmp ult i8 %12, 64
  br i1 %or.cond.i, label %13, label %33

13:                                               ; preds = %.lr.ph40.i
  %14 = zext nneg i8 %12 to i64
  %15 = getelementptr inbounds nuw i8, ptr %7, i64 %14
  %16 = load i8, ptr %15, align 1, !tbaa !30, !range !119, !noundef !120
  %17 = trunc nuw i8 %16 to i1
  br i1 %17, label %.preheader32.i, label %33

.preheader32.i:                                   ; preds = %13
  %18 = icmp ult ptr %.139.i, %.12338.i
  br i1 %18, label %.lr.ph.i, label %.preheader.i

.preheader.loopexit.i:                            ; preds = %.lr.ph.i
  %.pre.i = load i8, ptr %.12338.i, align 1, !tbaa !12
  br label %.preheader.i

.preheader.i:                                     ; preds = %.preheader.loopexit.i, %.preheader32.i
  %19 = phi i8 [ %12, %.preheader32.i ], [ %.pre.i, %.preheader.loopexit.i ]
  %.3.lcssa.i = phi ptr [ %.139.i, %.preheader32.i ], [ %22, %.preheader.loopexit.i ]
  br label %25

.lr.ph.i:                                         ; preds = %.preheader32.i, %.lr.ph.i
  %.335.i = phi ptr [ %22, %.lr.ph.i ], [ %.139.i, %.preheader32.i ]
  %20 = load i8, ptr %.335.i, align 1, !tbaa !12
  %21 = sext i8 %20 to i32
  call void (ptr, ptr, ...) @_ZN2cv8tinyxml210XMLPrinter5PrintEPKcz(ptr noundef nonnull align 8 dereferenceable(312) %0, ptr noundef nonnull @.str.23, i32 noundef %21)
  %22 = getelementptr inbounds nuw i8, ptr %.335.i, i64 1
  %23 = icmp ult ptr %22, %.12338.i
  br i1 %23, label %.lr.ph.i, label %.preheader.loopexit.i, !llvm.loop !175

24:                                               ; preds = %25
  %indvars.iv.next.i = add nuw nsw i64 %indvars.iv.i, 1
  %exitcond.not.i = icmp eq i64 %indvars.iv.next.i, 5
  br i1 %exitcond.not.i, label %.loopexit.i, label %25, !llvm.loop !176

25:                                               ; preds = %24, %.preheader.i
  %indvars.iv.i = phi i64 [ 0, %.preheader.i ], [ %indvars.iv.next.i, %24 ]
  %26 = getelementptr inbounds nuw [5 x %"struct.cv::tinyxml2::Entity"], ptr @_ZN2cv8tinyxml2L8entitiesE, i64 0, i64 %indvars.iv.i
  %27 = getelementptr inbounds nuw i8, ptr %26, i64 12
  %28 = load i8, ptr %27, align 4, !tbaa !23
  %29 = icmp eq i8 %28, %19
  br i1 %29, label %30, label %24

30:                                               ; preds = %25
  %31 = load ptr, ptr %26, align 16, !tbaa !20
  call void (ptr, ptr, ...) @_ZN2cv8tinyxml210XMLPrinter5PrintEPKcz(ptr noundef nonnull align 8 dereferenceable(312) %0, ptr noundef nonnull @.str.24, ptr noundef %31)
  br label %.loopexit.i

.loopexit.i:                                      ; preds = %24, %30
  %32 = getelementptr inbounds nuw i8, ptr %.3.lcssa.i, i64 1
  br label %33

33:                                               ; preds = %.loopexit.i, %13, %.lr.ph40.i
  %.2.i = phi ptr [ %32, %.loopexit.i ], [ %.139.i, %13 ], [ %.139.i, %.lr.ph40.i ]
  %34 = getelementptr inbounds nuw i8, ptr %.12338.i, i64 1
  %35 = load i8, ptr %34, align 1, !tbaa !12
  %.not.i = icmp eq i8 %35, 0
  br i1 %.not.i, label %.loopexit34.loopexit.i, label %.lr.ph40.i, !llvm.loop !177

.loopexit34.loopexit.i:                           ; preds = %33
  %.pre47.i = load i8, ptr %8, align 8, !tbaa !167, !range !119
  %.pre48.i = trunc nuw i8 %.pre47.i to i1
  br label %.loopexit34.i

.loopexit34.i:                                    ; preds = %.loopexit34.loopexit.i, %.preheader33.i
  %.pre-phi.i = phi i1 [ %.pre48.i, %.loopexit34.loopexit.i ], [ true, %.preheader33.i ]
  %.022.i = phi ptr [ %34, %.loopexit34.loopexit.i ], [ %4, %.preheader33.i ]
  %.021.i = phi ptr [ %.2.i, %.loopexit34.loopexit.i ], [ %4, %.preheader33.i ]
  %36 = ptrtoint ptr %.022.i to i64
  %37 = ptrtoint ptr %.021.i to i64
  %38 = sub i64 %36, %37
  %39 = icmp slt i64 %38, 1
  %or.cond30.not.i = select i1 %.pre-phi.i, i1 %39, i1 false
  br i1 %or.cond30.not.i, label %_ZN2cv8tinyxml210XMLPrinter11PrintStringEPKcb.exit, label %.loopexit34.thread.i

.loopexit34.thread.i:                             ; preds = %.loopexit34.i, %3
  %.02153.i = phi ptr [ %.021.i, %.loopexit34.i ], [ %4, %3 ]
  call void (ptr, ptr, ...) @_ZN2cv8tinyxml210XMLPrinter5PrintEPKcz(ptr noundef nonnull align 8 dereferenceable(312) %0, ptr noundef nonnull @.str.20, ptr noundef %.02153.i)
  br label %_ZN2cv8tinyxml210XMLPrinter11PrintStringEPKcb.exit

_ZN2cv8tinyxml210XMLPrinter11PrintStringEPKcb.exit: ; preds = %.loopexit34.i, %.loopexit34.thread.i
  call void (ptr, ptr, ...) @_ZN2cv8tinyxml210XMLPrinter5PrintEPKcz(ptr noundef nonnull align 8 dereferenceable(312) %0, ptr noundef nonnull @.str.29)
  call void @llvm.lifetime.end.p0(i64 200, ptr nonnull %4) #24
  ret void
}